; Function Attrs: mustprogress uwtable
define void @_ZN7rocksdb24NewBlockCacheTraceWriterEPNS_11SystemClockERKNS_28BlockCacheTraceWriterOptionsEOSt10unique_ptrINS_11TraceWriterESt14default_deleteIS6_EE(ptr dead_on_unwind noalias writable writeonly sret(%"class.std::unique_ptr.45") align 8 captures(none) %0, ptr noundef %1, ptr noundef nonnull align 8 dereferenceable(8) %2, ptr noundef nonnull align 8 dereferenceable(8) %3) local_unnamed_addr #5 personality ptr @__gxx_personality_v0 {
  %5 = tail call noalias noundef nonnull dereferenceable(32) ptr @_Znwm(i64 noundef 32) #31
  invoke void @_ZN7rocksdb25BlockCacheTraceWriterImplC1EPNS_11SystemClockERKNS_28BlockCacheTraceWriterOptionsEOSt10unique_ptrINS_11TraceWriterESt14default_deleteIS7_EE(ptr noundef nonnull align 8 dereferenceable(32) %5, ptr noundef %1, ptr noundef nonnull align 8 dereferenceable(8) %2, ptr noundef nonnull align 8 dereferenceable(8) %3)
          to label %6 unwind label %7

6:                                                ; preds = %4
  store ptr %5, ptr %0, align 8, !tbaa !158
  ret void

7:                                                ; preds = %4
  %8 = landingpad { ptr, i32 }
          cleanup
  tail call void @_ZdlPvm(ptr noundef nonnull %5, i64 noundef 32) #27
  resume { ptr, i32 } %8
}